target datalayout = "e-m:e-p270:32:32-p271:32:32-p272:64:64-i64:64-i128:128-f80:128-n8:16:32:64-S128"
target triple = "x86_64-pc-linux-gnu"

%struct.VP8LBitWriter = type { i64, i32, ptr, ptr, ptr, i32 }
%struct.WebPPicture = type { i32, i32, i32, i32, ptr, ptr, ptr, i32, i32, ptr, i32, [2 x i32], ptr, i32, [3 x i32], ptr, ptr, i32, ptr, ptr, i32, ptr, ptr, [3 x i32], ptr, ptr, [8 x i32], ptr, ptr, [2 x ptr] }
%struct.VP8LBackwardRefs = type { i32, i32, ptr, ptr, ptr, ptr }
%struct.VP8LHistogramSet = type { i32, i32, ptr }
%struct.HuffmanTreeCode = type { i32, ptr, ptr }

; Function Attrs: nounwind uwtable
define internal void @ClearHuffmanTreeIfOnlyOneSymbol(ptr noundef %0) #0 {
  %2 = alloca ptr, align 8
  %3 = alloca i32, align 4
  %4 = alloca i32, align 4
  %5 = alloca i32, align 4
  store ptr %0, ptr %2, align 8, !tbaa !10
  call void @llvm.lifetime.start.p0(i64 4, ptr %3) #7
  call void @llvm.lifetime.start.p0(i64 4, ptr %4) #7
  store i32 0, ptr %4, align 4, !tbaa !11
  store i32 0, ptr %3, align 4, !tbaa !11
  br label %6

6:                                                ; preds = %30, %1
  %7 = load i32, ptr %3, align 4, !tbaa !11
  %8 = load ptr, ptr %2, align 8, !tbaa !10
  %9 = getelementptr inbounds nuw %struct.HuffmanTreeCode, ptr %8, i32 0, i32 0
  %10 = load i32, ptr %9, align 8, !tbaa !135
  %11 = icmp slt i32 %7, %10
  br i1 %11, label %12, label %33

12:                                               ; preds = %6
  %13 = load ptr, ptr %2, align 8, !tbaa !10
  %14 = getelementptr inbounds nuw %struct.HuffmanTreeCode, ptr %13, i32 0, i32 1
  %15 = load ptr, ptr %14, align 8, !tbaa !151
  %16 = load i32, ptr %3, align 4, !tbaa !11
  %17 = sext i32 %16 to i64
  %18 = getelementptr inbounds i8, ptr %15, i64 %17
  %19 = load i8, ptr %18, align 1, !tbaa !17
  %20 = zext i8 %19 to i32
  %21 = icmp ne i32 %20, 0
  br i1 %21, label %22, label %29

22:                                               ; preds = %12
  %23 = load i32, ptr %4, align 4, !tbaa !11
  %24 = add nsw i32 %23, 1
  store i32 %24, ptr %4, align 4, !tbaa !11
  %25 = load i32, ptr %4, align 4, !tbaa !11
  %26 = icmp sgt i32 %25, 1
  br i1 %26, label %27, label %28

27:                                               ; preds = %22
  store i32 1, ptr %5, align 4
  br label %57

28:                                               ; preds = %22
  br label %29

29:                                               ; preds = %28, %12
  br label %30

30:                                               ; preds = %29
  %31 = load i32, ptr %3, align 4, !tbaa !11
  %32 = add nsw i32 %31, 1
  store i32 %32, ptr %3, align 4, !tbaa !11
  br label %6, !llvm.loop !156

33:                                               ; preds = %6
  store i32 0, ptr %3, align 4, !tbaa !11
  br label %34

34:                                               ; preds = %53, %33
  %35 = load i32, ptr %3, align 4, !tbaa !11
  %36 = load ptr, ptr %2, align 8, !tbaa !10
  %37 = getelementptr inbounds nuw %struct.HuffmanTreeCode, ptr %36, i32 0, i32 0
  %38 = load i32, ptr %37, align 8, !tbaa !135
  %39 = icmp slt i32 %35, %38
  br i1 %39, label %40, label %56

40:                                               ; preds = %34
  %41 = load ptr, ptr %2, align 8, !tbaa !10
  %42 = getelementptr inbounds nuw %struct.HuffmanTreeCode, ptr %41, i32 0, i32 1
  %43 = load ptr, ptr %42, align 8, !tbaa !151
  %44 = load i32, ptr %3, align 4, !tbaa !11
  %45 = sext i32 %44 to i64
  %46 = getelementptr inbounds i8, ptr %43, i64 %45
  store i8 0, ptr %46, align 1, !tbaa !17
  %47 = load ptr, ptr %2, align 8, !tbaa !10
  %48 = getelementptr inbounds nuw %struct.HuffmanTreeCode, ptr %47, i32 0, i32 2
  %49 = load ptr, ptr %48, align 8, !tbaa !140
  %50 = load i32, ptr %3, align 4, !tbaa !11
  %51 = sext i32 %50 to i64
  %52 = getelementptr inbounds i16, ptr %49, i64 %51
  store i16 0, ptr %52, align 2, !tbaa !157
  br label %53

53:                                               ; preds = %40
  %54 = load i32, ptr %3, align 4, !tbaa !11
  %55 = add nsw i32 %54, 1
  store i32 %55, ptr %3, align 4, !tbaa !11
  br label %34, !llvm.loop !159

56:                                               ; preds = %34
  store i32 0, ptr %5, align 4
  br label %57

57:                                               ; preds = %56, %27
  call void @llvm.lifetime.end.p0(i64 4, ptr %4) #7
  call void @llvm.lifetime.end.p0(i64 4, ptr %3) #7
  %58 = load i32, ptr %5, align 4
  switch i32 %58, label %60 [
    i32 0, label %59
    i32 1, label %59
  ]

59:                                               ; preds = %57, %57
  ret void

60:                                               ; preds = %57
  unreachable
}

; Function Attrs: inlinehint nounwind uwtable
define internal void @VP8LPutBits(ptr noundef %0, i32 noundef %1, i32 noundef %2) #3 {
  %4 = alloca ptr, align 8
  %5 = alloca i32, align 4
  %6 = alloca i32, align 4
  store ptr %0, ptr %4, align 8, !tbaa !10
  store i32 %1, ptr %5, align 4, !tbaa !11
  store i32 %2, ptr %6, align 4, !tbaa !11
  %7 = load i32, ptr %6, align 4, !tbaa !11
  %8 = icmp sgt i32 %7, 0
  br i1 %8, label %9, label %33

9:                                                ; preds = %3
  %10 = load ptr, ptr %4, align 8, !tbaa !10
  %11 = getelementptr inbounds nuw %struct.VP8LBitWriter, ptr %10, i32 0, i32 1
  %12 = load i32, ptr %11, align 8, !tbaa !104
  %13 = icmp sge i32 %12, 32
  br i1 %13, label %14, label %16

14:                                               ; preds = %9
  %15 = load ptr, ptr %4, align 8, !tbaa !10
  call void @VP8LPutBitsFlushBits(ptr noundef %15)
  br label %16

16:                                               ; preds = %14, %9
  %17 = load i32, ptr %5, align 4, !tbaa !11
  %18 = zext i32 %17 to i64
  %19 = load ptr, ptr %4, align 8, !tbaa !10
  %20 = getelementptr inbounds nuw %struct.VP8LBitWriter, ptr %19, i32 0, i32 1
  %21 = load i32, ptr %20, align 8, !tbaa !104
  %22 = zext i32 %21 to i64
  %23 = shl i64 %18, %22
  %24 = load ptr, ptr %4, align 8, !tbaa !10
  %25 = getelementptr inbounds nuw %struct.VP8LBitWriter, ptr %24, i32 0, i32 0
  %26 = load i64, ptr %25, align 8, !tbaa !127
  %27 = or i64 %26, %23
  store i64 %27, ptr %25, align 8, !tbaa !127
  %28 = load i32, ptr %6, align 4, !tbaa !11
  %29 = load ptr, ptr %4, align 8, !tbaa !10
  %30 = getelementptr inbounds nuw %struct.VP8LBitWriter, ptr %29, i32 0, i32 1
  %31 = load i32, ptr %30, align 8, !tbaa !104
  %32 = add nsw i32 %31, %28
  store i32 %32, ptr %30, align 8, !tbaa !104
  br label %33

33:                                               ; preds = %16, %3
  ret void
}

; Function Attrs: nounwind uwtable
define internal i32 @EncodeImageNoHuffman(ptr noundef %0, ptr noundef %1, ptr noundef %2, ptr noundef %3, i32 noundef %4, i32 noundef %5, i32 noundef %6, i32 noundef %7, ptr noundef %8, i32 noundef %9, ptr noundef %10) #0 {
  %12 = alloca ptr, align 8
  %13 = alloca ptr, align 8
  %14 = alloca ptr, align 8
  %15 = alloca ptr, align 8
  %16 = alloca i32, align 4
  %17 = alloca i32, align 4
  %18 = alloca i32, align 4
  %19 = alloca i32, align 4
  %20 = alloca ptr, align 8
  %21 = alloca i32, align 4
  %22 = alloca ptr, align 8
  %23 = alloca i32, align 4
  %24 = alloca i32, align 4
  %25 = alloca ptr, align 8
  %26 = alloca ptr, align 8
  %27 = alloca [5 x %struct.HuffmanTreeCode], align 16
  %28 = alloca [1 x i32], align 4
  %29 = alloca i32, align 4
  %30 = alloca ptr, align 8
  %31 = alloca ptr, align 8
  %32 = alloca ptr, align 8
  %33 = alloca ptr, align 8
  store ptr %0, ptr %12, align 8, !tbaa !10
  store ptr %1, ptr %13, align 8, !tbaa !61
  store ptr %2, ptr %14, align 8, !tbaa !128
  store ptr %3, ptr %15, align 8, !tbaa !130
  store i32 %4, ptr %16, align 4, !tbaa !11
  store i32 %5, ptr %17, align 4, !tbaa !11
  store i32 %6, ptr %18, align 4, !tbaa !11
  store i32 %7, ptr %19, align 4, !tbaa !11
  store ptr %8, ptr %20, align 8, !tbaa !8
  store i32 %9, ptr %21, align 4, !tbaa !11
  store ptr %10, ptr %22, align 8, !tbaa !61
  call void @llvm.lifetime.start.p0(i64 4, ptr %23) #7
  call void @llvm.lifetime.start.p0(i64 4, ptr %24) #7
  store i32 0, ptr %24, align 4, !tbaa !11
  call void @llvm.lifetime.start.p0(i64 8, ptr %25) #7
  call void @llvm.lifetime.start.p0(i64 8, ptr %26) #7
  store ptr null, ptr %26, align 8, !tbaa !10
  call void @llvm.lifetime.start.p0(i64 120, ptr %27) #7
  call void @llvm.memset.p0.i64(ptr align 16 %27, i8 0, i64 120, i1 false)
  call void @llvm.lifetime.start.p0(i64 4, ptr %28) #7
  call void @llvm.memset.p0.i64(ptr align 4 %28, i8 0, i64 4, i1 false)
  call void @llvm.lifetime.start.p0(i64 4, ptr %29) #7
  store i32 0, ptr %29, align 4, !tbaa !11
  call void @llvm.lifetime.start.p0(i64 8, ptr %30) #7
  store ptr null, ptr %30, align 8, !tbaa !10
  call void @llvm.lifetime.start.p0(i64 8, ptr %31) #7
  %34 = call ptr @WebPSafeMalloc(i64 noundef 57, i64 noundef 16)
  store ptr %34, ptr %31, align 8, !tbaa !10
  %35 = load ptr, ptr %31, align 8, !tbaa !10
  %36 = icmp eq ptr %35, null
  br i1 %36, label %37, label %40

37:                                               ; preds = %11
  %38 = load ptr, ptr %20, align 8, !tbaa !8
  %39 = call i32 @WebPEncodingSetError(ptr noundef %38, i32 noundef 1)
  br label %154

40:                                               ; preds = %11
  %41 = load ptr, ptr %14, align 8, !tbaa !128
  %42 = load i32, ptr %18, align 4, !tbaa !11
  %43 = load ptr, ptr %13, align 8, !tbaa !61
  %44 = load i32, ptr %16, align 4, !tbaa !11
  %45 = load i32, ptr %17, align 4, !tbaa !11
  %46 = load i32, ptr %19, align 4, !tbaa !11
  %47 = load ptr, ptr %20, align 8, !tbaa !8
  %48 = load i32, ptr %21, align 4, !tbaa !11
  %49 = sdiv i32 %48, 2
  %50 = load ptr, ptr %22, align 8, !tbaa !61
  %51 = call i32 @VP8LHashChainFill(ptr noundef %41, i32 noundef %42, ptr noundef %43, i32 noundef %44, i32 noundef %45, i32 noundef %46, ptr noundef %47, i32 noundef %49, ptr noundef %50)
  %52 = icmp ne i32 %51, 0
  br i1 %52, label %54, label %53

53:                                               ; preds = %40
  br label %154

54:                                               ; preds = %40
  %55 = load i32, ptr %16, align 4, !tbaa !11
  %56 = load i32, ptr %17, align 4, !tbaa !11
  %57 = load ptr, ptr %13, align 8, !tbaa !61
  %58 = load i32, ptr %18, align 4, !tbaa !11
  %59 = load i32, ptr %29, align 4, !tbaa !11
  %60 = load ptr, ptr %14, align 8, !tbaa !128
  %61 = load ptr, ptr %15, align 8, !tbaa !130
  %62 = load ptr, ptr %20, align 8, !tbaa !8
  %63 = load i32, ptr %21, align 4, !tbaa !11
  %64 = load i32, ptr %21, align 4, !tbaa !11
  %65 = sdiv i32 %64, 2
  %66 = sub nsw i32 %63, %65
  %67 = load ptr, ptr %22, align 8, !tbaa !61
  %68 = call i32 @VP8LGetBackwardReferences(i32 noundef %55, i32 noundef %56, ptr noundef %57, i32 noundef %58, i32 noundef 0, i32 noundef 3, i32 noundef %59, i32 noundef 0, ptr noundef %60, ptr noundef %61, ptr noundef %29, ptr noundef %62, i32 noundef %66, ptr noundef %67)
  %69 = icmp ne i32 %68, 0
  br i1 %69, label %71, label %70

70:                                               ; preds = %54
  br label %154

71:                                               ; preds = %54
  %72 = load ptr, ptr %15, align 8, !tbaa !130
  %73 = getelementptr inbounds %struct.VP8LBackwardRefs, ptr %72, i64 0
  store ptr %73, ptr %25, align 8, !tbaa !130
  %74 = load i32, ptr %29, align 4, !tbaa !11
  %75 = call ptr @VP8LAllocateHistogramSet(i32 noundef 1, i32 noundef %74)
  store ptr %75, ptr %30, align 8, !tbaa !10
  %76 = load ptr, ptr %30, align 8, !tbaa !10
  %77 = icmp eq ptr %76, null
  br i1 %77, label %78, label %81

78:                                               ; preds = %71
  %79 = load ptr, ptr %20, align 8, !tbaa !8
  %80 = call i32 @WebPEncodingSetError(ptr noundef %79, i32 noundef 1)
  br label %154

81:                                               ; preds = %71
  %82 = load ptr, ptr %30, align 8, !tbaa !10
  call void @VP8LHistogramSetClear(ptr noundef %82)
  %83 = load ptr, ptr %25, align 8, !tbaa !130
  %84 = load ptr, ptr %30, align 8, !tbaa !10
  %85 = getelementptr inbounds nuw %struct.VP8LHistogramSet, ptr %84, i32 0, i32 2
  %86 = load ptr, ptr %85, align 8, !tbaa !143
  %87 = getelementptr inbounds ptr, ptr %86, i64 0
  %88 = load ptr, ptr %87, align 8, !tbaa !10
  call void @VP8LHistogramStoreRefs(ptr noundef %83, ptr noundef %88)
  %89 = load ptr, ptr %30, align 8, !tbaa !10
  %90 = getelementptr inbounds [5 x %struct.HuffmanTreeCode], ptr %27, i64 0, i64 0
  %91 = call i32 @GetHuffBitLengthsAndCodes(ptr noundef %89, ptr noundef %90)
  %92 = icmp ne i32 %91, 0
  br i1 %92, label %96, label %93

93:                                               ; preds = %81
  %94 = load ptr, ptr %20, align 8, !tbaa !8
  %95 = call i32 @WebPEncodingSetError(ptr noundef %94, i32 noundef 1)
  br label %154

96:                                               ; preds = %81
  %97 = load ptr, ptr %12, align 8, !tbaa !10
  call void @VP8LPutBits(ptr noundef %97, i32 noundef 0, i32 noundef 1)
  store i32 0, ptr %23, align 4, !tbaa !11
  br label %98

98:                                               ; preds = %115, %96
  %99 = load i32, ptr %23, align 4, !tbaa !11
  %100 = icmp slt i32 %99, 5
  br i1 %100, label %101, label %118

101:                                              ; preds = %98
  call void @llvm.lifetime.start.p0(i64 8, ptr %32) #7
  %102 = load i32, ptr %23, align 4, !tbaa !11
  %103 = sext i32 %102 to i64
  %104 = getelementptr inbounds [5 x %struct.HuffmanTreeCode], ptr %27, i64 0, i64 %103
  store ptr %104, ptr %32, align 8, !tbaa !10
  %105 = load i32, ptr %24, align 4, !tbaa !11
  %106 = load ptr, ptr %32, align 8, !tbaa !10
  %107 = getelementptr inbounds nuw %struct.HuffmanTreeCode, ptr %106, i32 0, i32 0
  %108 = load i32, ptr %107, align 8, !tbaa !135
  %109 = icmp slt i32 %105, %108
  br i1 %109, label %110, label %114

110:                                              ; preds = %101
  %111 = load ptr, ptr %32, align 8, !tbaa !10
  %112 = getelementptr inbounds nuw %struct.HuffmanTreeCode, ptr %111, i32 0, i32 0
  %113 = load i32, ptr %112, align 8, !tbaa !135
  store i32 %113, ptr %24, align 4, !tbaa !11
  br label %114

114:                                              ; preds = %110, %101
  call void @llvm.lifetime.end.p0(i64 8, ptr %32) #7
  br label %115

115:                                              ; preds = %114
  %116 = load i32, ptr %23, align 4, !tbaa !11
  %117 = add nsw i32 %116, 1
  store i32 %117, ptr %23, align 4, !tbaa !11
  br label %98, !llvm.loop !144

118:                                              ; preds = %98
  %119 = load i32, ptr %24, align 4, !tbaa !11
  %120 = sext i32 %119 to i64
  %121 = call ptr @WebPSafeMalloc(i64 noundef %120, i64 noundef 2)
  store ptr %121, ptr %26, align 8, !tbaa !10
  %122 = load ptr, ptr %26, align 8, !tbaa !10
  %123 = icmp eq ptr %122, null
  br i1 %123, label %124, label %127

124:                                              ; preds = %118
  %125 = load ptr, ptr %20, align 8, !tbaa !8
  %126 = call i32 @WebPEncodingSetError(ptr noundef %125, i32 noundef 1)
  br label %154

127:                                              ; preds = %118
  store i32 0, ptr %23, align 4, !tbaa !11
  br label %128

128:                                              ; preds = %140, %127
  %129 = load i32, ptr %23, align 4, !tbaa !11
  %130 = icmp slt i32 %129, 5
  br i1 %130, label %131, label %143

131:                                              ; preds = %128
  call void @llvm.lifetime.start.p0(i64 8, ptr %33) #7
  %132 = load i32, ptr %23, align 4, !tbaa !11
  %133 = sext i32 %132 to i64
  %134 = getelementptr inbounds [5 x %struct.HuffmanTreeCode], ptr %27, i64 0, i64 %133
  store ptr %134, ptr %33, align 8, !tbaa !10
  %135 = load ptr, ptr %12, align 8, !tbaa !10
  %136 = load ptr, ptr %31, align 8, !tbaa !10
  %137 = load ptr, ptr %26, align 8, !tbaa !10
  %138 = load ptr, ptr %33, align 8, !tbaa !10
  call void @StoreHuffmanCode(ptr noundef %135, ptr noundef %136, ptr noundef %137, ptr noundef %138)
  %139 = load ptr, ptr %33, align 8, !tbaa !10
  call void @ClearHuffmanTreeIfOnlyOneSymbol(ptr noundef %139)
  call void @llvm.lifetime.end.p0(i64 8, ptr %33) #7
  br label %140

140:                                              ; preds = %131
  %141 = load i32, ptr %23, align 4, !tbaa !11
  %142 = add nsw i32 %141, 1
  store i32 %142, ptr %23, align 4, !tbaa !11
  br label %128, !llvm.loop !145

143:                                              ; preds = %128
  %144 = load ptr, ptr %12, align 8, !tbaa !10
  %145 = load i32, ptr %16, align 4, !tbaa !11
  %146 = load ptr, ptr %25, align 8, !tbaa !130
  %147 = getelementptr inbounds [1 x i32], ptr %28, i64 0, i64 0
  %148 = getelementptr inbounds [5 x %struct.HuffmanTreeCode], ptr %27, i64 0, i64 0
  %149 = load ptr, ptr %20, align 8, !tbaa !8
  %150 = call i32 @StoreImageToBitMask(ptr noundef %144, i32 noundef %145, i32 noundef 0, ptr noundef %146, ptr noundef %147, ptr noundef %148, ptr noundef %149)
  %151 = icmp ne i32 %150, 0
  br i1 %151, label %153, label %152

152:                                              ; preds = %143
  br label %154

153:                                              ; preds = %143
  br label %154

154:                                              ; preds = %153, %152, %124, %93, %78, %70, %53, %37
  %155 = load ptr, ptr %26, align 8, !tbaa !10
  call void @WebPSafeFree(ptr noundef %155)
  %156 = load ptr, ptr %31, align 8, !tbaa !10
  call void @WebPSafeFree(ptr noundef %156)
  %157 = load ptr, ptr %30, align 8, !tbaa !10
  call void @VP8LFreeHistogramSet(ptr noundef %157)
  %158 = getelementptr inbounds [5 x %struct.HuffmanTreeCode], ptr %27, i64 0, i64 0
  %159 = getelementptr inbounds nuw %struct.HuffmanTreeCode, ptr %158, i32 0, i32 2
  %160 = load ptr, ptr %159, align 16, !tbaa !140
  call void @WebPSafeFree(ptr noundef %160)
  %161 = load ptr, ptr %20, align 8, !tbaa !8
  %162 = getelementptr inbounds nuw %struct.WebPPicture, ptr %161, i32 0, i32 20
  %163 = load i32, ptr %162, align 8, !tbaa !56
  %164 = icmp eq i32 %163, 0
  %165 = zext i1 %164 to i32
  call void @llvm.lifetime.end.p0(i64 8, ptr %31) #7
  call void @llvm.lifetime.end.p0(i64 8, ptr %30) #7
  call void @llvm.lifetime.end.p0(i64 4, ptr %29) #7
  call void @llvm.lifetime.end.p0(i64 4, ptr %28) #7
  call void @llvm.lifetime.end.p0(i64 120, ptr %27) #7
  call void @llvm.lifetime.end.p0(i64 8, ptr %26) #7
  call void @llvm.lifetime.end.p0(i64 8, ptr %25) #7
  call void @llvm.lifetime.end.p0(i64 4, ptr %24) #7
  call void @llvm.lifetime.end.p0(i64 4, ptr %23) #7
  ret i32 %165
}