; Function Attrs: nounwind uwtable
define internal fastcc range(i32 0, 2) i32 @EncodeImageNoHuffman(ptr noundef %0, ptr noundef %1, ptr noundef %2, ptr noundef %3, i32 noundef %4, i32 noundef %5, i32 noundef %6, i32 noundef range(i32 0, 2) %7, ptr noundef %8, i32 noundef range(i32 -1610612735, 1610612736) %9, ptr noundef nonnull %10) unnamed_addr #0 {
  %12 = alloca [5 x %struct.HuffmanTreeCode], align 16
  %13 = alloca [1 x i32], align 4
  %14 = alloca i32, align 4
  call void @llvm.lifetime.start.p0(i64 120, ptr nonnull %12) #8
  call void @llvm.memset.p0.i64(ptr noundef nonnull align 16 dereferenceable(120) %12, i8 0, i64 120, i1 false)
  call void @llvm.lifetime.start.p0(i64 4, ptr nonnull %13) #8
  store i32 0, ptr %13, align 4
  call void @llvm.lifetime.start.p0(i64 4, ptr nonnull %14) #8
  store i32 0, ptr %14, align 4, !tbaa !37
  %15 = tail call ptr @WebPSafeMalloc(i64 noundef 57, i64 noundef 16) #8
  %16 = icmp eq ptr %15, null
  br i1 %16, label %17, label %19

17:                                               ; preds = %11
  %18 = tail call i32 @WebPEncodingSetError(ptr noundef %8, i32 noundef 1) #8
  br label %75

19:                                               ; preds = %11
  %20 = sdiv i32 %9, 2
  %21 = tail call i32 @VP8LHashChainFill(ptr noundef %2, i32 noundef %6, ptr noundef %1, i32 noundef %4, i32 noundef %5, i32 noundef %7, ptr noundef %8, i32 noundef %20, ptr noundef nonnull %10) #8
  %.not = icmp eq i32 %21, 0
  br i1 %.not, label %75, label %22

22:                                               ; preds = %19
  %23 = sub nsw i32 %9, %20
  %24 = call i32 @VP8LGetBackwardReferences(i32 noundef %4, i32 noundef %5, ptr noundef %1, i32 noundef %6, i32 noundef 0, i32 noundef 3, i32 noundef 0, i32 noundef 0, ptr noundef %2, ptr noundef %3, ptr noundef nonnull %14, ptr noundef %8, i32 noundef %23, ptr noundef nonnull %10) #8
  %.not64 = icmp eq i32 %24, 0
  br i1 %.not64, label %75, label %25

25:                                               ; preds = %22
  %26 = load i32, ptr %14, align 4, !tbaa !37
  %27 = call ptr @VP8LAllocateHistogramSet(i32 noundef 1, i32 noundef %26) #8
  %28 = icmp eq ptr %27, null
  br i1 %28, label %29, label %31

29:                                               ; preds = %25
  %30 = call i32 @WebPEncodingSetError(ptr noundef %8, i32 noundef 1) #8
  br label %75

31:                                               ; preds = %25
  call void @VP8LHistogramSetClear(ptr noundef nonnull %27) #8
  %32 = getelementptr inbounds nuw i8, ptr %27, i64 8
  %33 = load ptr, ptr %32, align 8, !tbaa !149
  %34 = load ptr, ptr %33, align 8, !tbaa !99
  call void @VP8LHistogramStoreRefs(ptr noundef %3, ptr noundef %34) #8
  %35 = call fastcc i32 @GetHuffBitLengthsAndCodes(ptr noundef %27, ptr noundef %12)
  %.not65 = icmp eq i32 %35, 0
  br i1 %.not65, label %36, label %38

36:                                               ; preds = %31
  %37 = call i32 @WebPEncodingSetError(ptr noundef %8, i32 noundef 1) #8
  br label %75

38:                                               ; preds = %31
  %39 = getelementptr inbounds nuw i8, ptr %0, i64 8
  %40 = load i32, ptr %39, align 8, !tbaa !85
  %41 = icmp sgt i32 %40, 31
  br i1 %41, label %42, label %VP8LPutBits.exit

42:                                               ; preds = %38
  call void @VP8LPutBitsFlushBits(ptr noundef nonnull %0) #8
  %.pre.i = load i32, ptr %39, align 8, !tbaa !85
  br label %VP8LPutBits.exit

VP8LPutBits.exit:                                 ; preds = %38, %42
  %43 = phi i32 [ %.pre.i, %42 ], [ %40, %38 ]
  %44 = add nsw i32 %43, 1
  store i32 %44, ptr %39, align 8, !tbaa !85
  br label %45

45:                                               ; preds = %VP8LPutBits.exit, %45
  %indvars.iv = phi i64 [ 0, %VP8LPutBits.exit ], [ %indvars.iv.next, %45 ]
  %.05467 = phi i32 [ 0, %VP8LPutBits.exit ], [ %spec.select, %45 ]
  %46 = getelementptr inbounds nuw [5 x %struct.HuffmanTreeCode], ptr %12, i64 0, i64 %indvars.iv
  %47 = load i32, ptr %46, align 8, !tbaa !120
  %spec.select = call i32 @llvm.smax.i32(i32 %.05467, i32 %47)
  %indvars.iv.next = add nuw nsw i64 %indvars.iv, 1
  %exitcond.not = icmp eq i64 %indvars.iv.next, 5
  br i1 %exitcond.not, label %48, label %45, !llvm.loop !150

48:                                               ; preds = %45
  %49 = zext nneg i32 %spec.select to i64
  %50 = call ptr @WebPSafeMalloc(i64 noundef %49, i64 noundef 2) #8
  %51 = icmp eq ptr %50, null
  br i1 %51, label %52, label %.preheader

52:                                               ; preds = %48
  %53 = call i32 @WebPEncodingSetError(ptr noundef %8, i32 noundef 1) #8
  br label %75

.preheader:                                       ; preds = %48, %ClearHuffmanTreeIfOnlyOneSymbol.exit
  %indvars.iv72 = phi i64 [ %indvars.iv.next73, %ClearHuffmanTreeIfOnlyOneSymbol.exit ], [ 0, %48 ]
  %54 = getelementptr inbounds nuw [5 x %struct.HuffmanTreeCode], ptr %12, i64 0, i64 %indvars.iv72
  call fastcc void @StoreHuffmanCode(ptr noundef %0, ptr noundef %15, ptr noundef %50, ptr noundef %54)
  %55 = load i32, ptr %54, align 8, !tbaa !120
  %56 = icmp sgt i32 %55, 0
  br i1 %56, label %.lr.ph.i, label %ClearHuffmanTreeIfOnlyOneSymbol.exit

.lr.ph.i:                                         ; preds = %.preheader
  %57 = getelementptr inbounds nuw i8, ptr %54, i64 8
  %58 = load ptr, ptr %57, align 8, !tbaa !124
  %wide.trip.count.i = zext nneg i32 %55 to i64
  br label %60

.preheader.i:                                     ; preds = %64
  %59 = getelementptr inbounds nuw i8, ptr %54, i64 16
  br label %65

60:                                               ; preds = %64, %.lr.ph.i
  %indvars.iv.i = phi i64 [ 0, %.lr.ph.i ], [ %indvars.iv.next.i, %64 ]
  %.019.i = phi i32 [ 0, %.lr.ph.i ], [ %.1.i, %64 ]
  %61 = getelementptr inbounds nuw i8, ptr %58, i64 %indvars.iv.i
  %62 = load i8, ptr %61, align 1, !tbaa !43
  %.not.i = icmp eq i8 %62, 0
  br i1 %.not.i, label %64, label %63

63:                                               ; preds = %60
  %.not16.i = icmp eq i32 %.019.i, 0
  br i1 %.not16.i, label %64, label %ClearHuffmanTreeIfOnlyOneSymbol.exit

64:                                               ; preds = %63, %60
  %.1.i = phi i32 [ 1, %63 ], [ %.019.i, %60 ]
  %indvars.iv.next.i = add nuw nsw i64 %indvars.iv.i, 1
  %exitcond.not.i = icmp eq i64 %indvars.iv.next.i, %wide.trip.count.i
  br i1 %exitcond.not.i, label %.preheader.i, label %60, !llvm.loop !125

65:                                               ; preds = %65, %.preheader.i
  %indvars.iv24.i = phi i64 [ 0, %.preheader.i ], [ %indvars.iv.next25.i, %65 ]
  %66 = load ptr, ptr %57, align 8, !tbaa !124
  %67 = getelementptr inbounds nuw i8, ptr %66, i64 %indvars.iv24.i
  store i8 0, ptr %67, align 1, !tbaa !43
  %68 = load ptr, ptr %59, align 8, !tbaa !126
  %69 = getelementptr inbounds nuw i16, ptr %68, i64 %indvars.iv24.i
  store i16 0, ptr %69, align 2, !tbaa !101
  %indvars.iv.next25.i = add nuw nsw i64 %indvars.iv24.i, 1
  %70 = load i32, ptr %54, align 8, !tbaa !120
  %71 = sext i32 %70 to i64
  %72 = icmp slt i64 %indvars.iv.next25.i, %71
  br i1 %72, label %65, label %ClearHuffmanTreeIfOnlyOneSymbol.exit, !llvm.loop !127

ClearHuffmanTreeIfOnlyOneSymbol.exit:             ; preds = %63, %65, %.preheader
  %indvars.iv.next73 = add nuw nsw i64 %indvars.iv72, 1
  %exitcond75.not = icmp eq i64 %indvars.iv.next73, 5
  br i1 %exitcond75.not, label %73, label %.preheader, !llvm.loop !151

73:                                               ; preds = %ClearHuffmanTreeIfOnlyOneSymbol.exit
  %74 = call fastcc i32 @StoreImageToBitMask(ptr noundef %0, i32 noundef %4, i32 noundef 0, ptr noundef %3, ptr noundef %13, ptr noundef %12, ptr noundef %8)
  br label %75

75:                                               ; preds = %73, %22, %19, %52, %36, %29, %17
  %.057 = phi ptr [ null, %17 ], [ null, %29 ], [ %27, %52 ], [ %27, %73 ], [ %27, %36 ], [ null, %22 ], [ null, %19 ]
  %.056 = phi ptr [ null, %17 ], [ null, %29 ], [ null, %52 ], [ %50, %73 ], [ null, %36 ], [ null, %22 ], [ null, %19 ]
  call void @WebPSafeFree(ptr noundef %.056) #8
  call void @WebPSafeFree(ptr noundef %15) #8
  call void @VP8LFreeHistogramSet(ptr noundef %.057) #8
  %76 = getelementptr inbounds nuw i8, ptr %12, i64 16
  %77 = load ptr, ptr %76, align 16, !tbaa !126
  call void @WebPSafeFree(ptr noundef %77) #8
  %78 = getelementptr inbounds nuw i8, ptr %8, i64 136
  %79 = load i32, ptr %78, align 8, !tbaa !81
  %80 = icmp eq i32 %79, 0
  %81 = zext i1 %80 to i32
  call void @llvm.lifetime.end.p0(i64 4, ptr nonnull %14) #8
  call void @llvm.lifetime.end.p0(i64 4, ptr nonnull %13) #8
  call void @llvm.lifetime.end.p0(i64 120, ptr nonnull %12) #8
  ret i32 %81
}